; Function Attrs: mustprogress uwtable
define dso_local void @_ZN22btMultiBodyPoint2PointC2EP11btMultiBodyiP11btRigidBodyRK9btVector3S6_(ptr noundef nonnull align 8 dereferenceable(144) %this, ptr noundef %body, i32 noundef %link, ptr noundef %bodyB, ptr nocapture noundef nonnull readonly align 4 dereferenceable(16) %pivotInA, ptr nocapture noundef nonnull readonly align 4 dereferenceable(16) %pivotInB) unnamed_addr #0 align 2 personality ptr @__gxx_personality_v0 {
entry:
  tail call void @_ZN21btMultiBodyConstraintC2EP11btMultiBodyS1_iiibi(ptr noundef nonnull align 8 dereferenceable(96) %this, ptr noundef %body, ptr noundef null, i32 noundef %link, i32 noundef -1, i32 noundef 3, i1 noundef zeroext false, i32 noundef 6)
  store ptr getelementptr inbounds ({ [15 x ptr] }, ptr @_ZTV22btMultiBodyPoint2Point, i64 0, i32 0, i64 2), ptr %this, align 8
  %m_rigidBodyA = getelementptr inbounds i8, ptr %this, i64 96
  store ptr null, ptr %m_rigidBodyA, align 8
  %m_rigidBodyB = getelementptr inbounds i8, ptr %this, i64 104
  store ptr %bodyB, ptr %m_rigidBodyB, align 8
  %m_pivotInA = getelementptr inbounds i8, ptr %this, i64 112
  tail call void @llvm.memcpy.p0.p0.i64(ptr noundef nonnull align 8 dereferenceable(16) %m_pivotInA, ptr noundef nonnull align 4 dereferenceable(16) %pivotInA, i64 16, i1 false)
  %m_pivotInB = getelementptr inbounds i8, ptr %this, i64 128
  tail call void @llvm.memcpy.p0.p0.i64(ptr noundef nonnull align 8 dereferenceable(16) %m_pivotInB, ptr noundef nonnull align 4 dereferenceable(16) %pivotInB, i64 16, i1 false)
  %m_size.i.i = getelementptr inbounds i8, ptr %this, i64 68
  %0 = load i32, ptr %m_size.i.i, align 4
  %cmp3.i = icmp slt i32 %0, 3
  br i1 %cmp3.i, label %if.then4.i, label %invoke.cont

if.then4.i:                                       ; preds = %entry
  %m_capacity.i.i.i = getelementptr inbounds i8, ptr %this, i64 72
  %1 = load i32, ptr %m_capacity.i.i.i, align 8
  %cmp.i.i = icmp slt i32 %1, 3
  br i1 %cmp.i.i, label %if.then.i.i, label %for.body8.lr.ph.i

if.then.i.i:                                      ; preds = %if.then4.i
  %call.i.i.i.i1 = invoke noundef ptr @_Z22btAlignedAllocInternalmi(i64 noundef 12, i32 noundef 16)
          to label %call.i.i.i.i.noexc unwind label %lpad

call.i.i.i.i.noexc:                               ; preds = %if.then.i.i
  %.pre.i = load i32, ptr %m_size.i.i, align 4
  %cmp4.i.i.i = icmp sgt i32 %.pre.i, 0
  br i1 %cmp4.i.i.i, label %for.body.lr.ph.i.i.i, label %_ZNK20btAlignedObjectArrayIfE4copyEiiPf.exit.i.i

for.body.lr.ph.i.i.i:                             ; preds = %call.i.i.i.i.noexc
  %m_data.i.i.i = getelementptr inbounds i8, ptr %this, i64 80
  %wide.trip.count.i.i.i = zext nneg i32 %.pre.i to i64
  br label %for.body.i.i.i

for.body.i.i.i:                                   ; preds = %for.body.i.i.i, %for.body.lr.ph.i.i.i
  %indvars.iv.i.i.i = phi i64 [ 0, %for.body.lr.ph.i.i.i ], [ %indvars.iv.next.i.i.i, %for.body.i.i.i ]
  %arrayidx.i.i.i = getelementptr inbounds float, ptr %call.i.i.i.i1, i64 %indvars.iv.i.i.i
  %2 = load ptr, ptr %m_data.i.i.i, align 8
  %arrayidx3.i.i.i = getelementptr inbounds float, ptr %2, i64 %indvars.iv.i.i.i
  %3 = load float, ptr %arrayidx3.i.i.i, align 4
  store float %3, ptr %arrayidx.i.i.i, align 4
  %indvars.iv.next.i.i.i = add nuw nsw i64 %indvars.iv.i.i.i, 1
  %exitcond.not.i.i.i = icmp eq i64 %indvars.iv.next.i.i.i, %wide.trip.count.i.i.i
  br i1 %exitcond.not.i.i.i, label %_ZNK20btAlignedObjectArrayIfE4copyEiiPf.exit.i.i, label %for.body.i.i.i, !llvm.loop !5

_ZNK20btAlignedObjectArrayIfE4copyEiiPf.exit.i.i: ; preds = %for.body.i.i.i, %call.i.i.i.i.noexc
  %m_data.i5.i.i = getelementptr inbounds i8, ptr %this, i64 80
  %4 = load ptr, ptr %m_data.i5.i.i, align 8
  %tobool.not.i6.i.i = icmp eq ptr %4, null
  br i1 %tobool.not.i6.i.i, label %if.end.i, label %if.then.i7.i.i

if.then.i7.i.i:                                   ; preds = %_ZNK20btAlignedObjectArrayIfE4copyEiiPf.exit.i.i
  %m_ownsMemory.i.i.i = getelementptr inbounds i8, ptr %this, i64 88
  %5 = load i8, ptr %m_ownsMemory.i.i.i, align 8
  %6 = and i8 %5, 1
  %tobool2.not.i.i.i = icmp eq i8 %6, 0
  br i1 %tobool2.not.i.i.i, label %if.end.i, label %if.then3.i.i.i

if.then3.i.i.i:                                   ; preds = %if.then.i7.i.i
  invoke void @_Z21btAlignedFreeInternalPv(ptr noundef nonnull %4)
          to label %if.end.i unwind label %lpad

if.end.i:                                         ; preds = %if.then3.i.i.i, %if.then.i7.i.i, %_ZNK20btAlignedObjectArrayIfE4copyEiiPf.exit.i.i
  %m_ownsMemory.i.i = getelementptr inbounds i8, ptr %this, i64 88
  store i8 1, ptr %m_ownsMemory.i.i, align 8
  store ptr %call.i.i.i.i1, ptr %m_data.i5.i.i, align 8
  store i32 3, ptr %m_capacity.i.i.i, align 8
  br label %for.body8.lr.ph.i

for.body8.lr.ph.i:                                ; preds = %if.end.i, %if.then4.i
  %m_data9.i = getelementptr inbounds i8, ptr %this, i64 80
  %7 = sext i32 %0 to i64
  br label %for.body8.i

for.body8.i:                                      ; preds = %for.body8.i, %for.body8.lr.ph.i
  %indvars.iv.i = phi i64 [ %7, %for.body8.lr.ph.i ], [ %indvars.iv.next.i, %for.body8.i ]
  %8 = load ptr, ptr %m_data9.i, align 8
  %arrayidx11.i = getelementptr inbounds float, ptr %8, i64 %indvars.iv.i
  store float 0.000000e+00, ptr %arrayidx11.i, align 4
  %indvars.iv.next.i = add nsw i64 %indvars.iv.i, 1
  %exitcond.not.i = icmp eq i64 %indvars.iv.next.i, 3
  br i1 %exitcond.not.i, label %invoke.cont, label %for.body8.i, !llvm.loop !7

invoke.cont:                                      ; preds = %for.body8.i, %entry
  store i32 3, ptr %m_size.i.i, align 4
  ret void

lpad:                                             ; preds = %if.then3.i.i.i, %if.then.i.i
  %9 = landingpad { ptr, i32 }
          cleanup
  tail call void @_ZN21btMultiBodyConstraintD2Ev(ptr noundef nonnull align 8 dereferenceable(96) %this) #12
  resume { ptr, i32 } %9
}